; Function Attrs: nounwind uwtable
define internal void @dissect_utran_cell_search_value(ptr noundef %0, ptr readnone captures(none) %1) #0 {
  %3 = alloca i32, align 4
  %4 = load i32, ptr @hf_nfapi_uarfcn, align 4
  %5 = tail call ptr @ptvcursor_add(ptr noundef %0, i32 noundef %4, i32 noundef 2, i32 noundef 0) #7
  %6 = load i32, ptr @hf_nfapi_exhaustive_search, align 4
  %7 = tail call ptr @ptvcursor_add(ptr noundef %0, i32 noundef %6, i32 noundef 1, i32 noundef 0) #7
  %8 = load i32, ptr @hf_nfapi_timeout, align 4
  %9 = tail call ptr @ptvcursor_add(ptr noundef %0, i32 noundef %8, i32 noundef 4, i32 noundef 0) #7
  %10 = load i32, ptr @hf_nfapi_number_of_psc, align 4
  %11 = call ptr @ptvcursor_add_ret_uint(ptr noundef %0, i32 noundef %10, i32 noundef 1, i32 noundef 0, ptr noundef nonnull %3) #7
  %12 = load i32, ptr @ett_nfapi_psc_list, align 4
  %13 = load i32, ptr %3, align 4
  %.not.i = icmp eq i32 %13, 0
  br i1 %.not.i, label %dissect_array_value.exit, label %14

14:                                               ; preds = %2
  %15 = call ptr (ptr, i32, i32, ptr, ...) @ptvcursor_add_text_with_subtree(ptr noundef %0, i32 noundef -1, i32 noundef %12, ptr noundef nonnull @.str.1839, ptr noundef nonnull @.str.2338) #7
  br label %16

16:                                               ; preds = %16, %14
  %17 = phi i32 [ 0, %14 ], [ %22, %16 ]
  %.016.i = phi i16 [ 0, %14 ], [ %21, %16 ]
  %18 = call ptr (ptr, i32, i32, ptr, ...) @ptvcursor_add_text_with_subtree(ptr noundef %0, i32 noundef -1, i32 noundef %12, ptr noundef nonnull @.str.1840, i32 noundef %17) #7
  %19 = load i32, ptr @hf_nfapi_psc, align 4
  %20 = call ptr @ptvcursor_add(ptr noundef %0, i32 noundef %19, i32 noundef 2, i32 noundef 0) #7
  call void @ptvcursor_pop_subtree(ptr noundef %0) #7
  %21 = add i16 %.016.i, 1
  %22 = zext i16 %21 to i32
  %23 = icmp ugt i32 %13, %22
  br i1 %23, label %16, label %24, !llvm.loop !4

24:                                               ; preds = %16
  call void @ptvcursor_pop_subtree(ptr noundef %0) #7
  br label %dissect_array_value.exit

dissect_array_value.exit:                         ; preds = %2, %24
  ret void
}